; Function Attrs: nounwind sspstrong uwtable
define internal i32 @pty_chr_read_poll(ptr noundef %opaque) #0 {
entry:
  %call.i = tail call ptr @object_dynamic_cast_assert(ptr noundef %opaque, ptr noundef nonnull @.str.1, ptr noundef nonnull @.str.2, i32 noundef 231, ptr noundef nonnull @__func__.CHARDEV) #9
  %call.i3 = tail call ptr @object_dynamic_cast_assert(ptr noundef %opaque, ptr noundef nonnull @.str, ptr noundef nonnull @.str.3, i32 noundef 48, ptr noundef nonnull @__func__.PTY_CHARDEV) #9
  %call2 = tail call i32 @qemu_chr_be_can_write(ptr noundef %call.i) #9
  %read_bytes = getelementptr inbounds nuw i8, ptr %call.i3, i64 160
  store i32 %call2, ptr %read_bytes, align 8
  ret i32 %call2
}